; Function Attrs: alwaysinline norecurse nounwind uwtable
define internal void @_ZNK4ncnn12ReLU_x86_fma20forward_inplace_int8ERNS_3MatERKNS_6OptionE.omp_outlined.2(ptr noalias noundef readonly captures(none) %0, ptr noalias readnone captures(none) %1, ptr noundef nonnull readonly align 4 captures(none) dereferenceable(4) %2, ptr noundef nonnull readonly align 8 captures(none) dereferenceable(72) %3, ptr noundef nonnull readonly align 4 captures(none) dereferenceable(4) %4) #9 personality ptr @__gxx_personality_v0 {
  %6 = alloca i32, align 4
  %7 = alloca i32, align 4
  %8 = alloca i32, align 4
  %9 = alloca i32, align 4
  %10 = load i32, ptr %2, align 4, !tbaa !18
  %11 = icmp sgt i32 %10, 0
  br i1 %11, label %12, label %46

12:                                               ; preds = %5
  %13 = add nsw i32 %10, -1
  call void @llvm.lifetime.start.p0(i64 4, ptr nonnull %6) #7
  store i32 0, ptr %6, align 4, !tbaa !18
  call void @llvm.lifetime.start.p0(i64 4, ptr nonnull %7) #7
  store i32 %13, ptr %7, align 4, !tbaa !18
  call void @llvm.lifetime.start.p0(i64 4, ptr nonnull %8) #7
  store i32 1, ptr %8, align 4, !tbaa !18
  call void @llvm.lifetime.start.p0(i64 4, ptr nonnull %9) #7
  store i32 0, ptr %9, align 4, !tbaa !18
  %14 = load i32, ptr %0, align 4, !tbaa !18
  call void @__kmpc_for_static_init_4(ptr nonnull @1, i32 %14, i32 34, ptr nonnull %9, ptr nonnull %6, ptr nonnull %7, ptr nonnull %8, i32 1, i32 1)
  %15 = load i32, ptr %7, align 4, !tbaa !18
  %16 = call i32 @llvm.smin.i32(i32 %15, i32 %13)
  store i32 %16, ptr %7, align 4, !tbaa !18
  %17 = load i32, ptr %6, align 4, !tbaa !18
  %.not30 = icmp sgt i32 %17, %16
  br i1 %.not30, label %._crit_edge32, label %.noexc.lr.ph

.noexc.lr.ph:                                     ; preds = %12
  %18 = getelementptr inbounds nuw i8, ptr %3, i64 64
  %19 = getelementptr inbounds nuw i8, ptr %3, i64 16
  %20 = load i32, ptr %4, align 4, !tbaa !18
  %21 = icmp sgt i32 %20, 0
  br i1 %21, label %.noexc.preheader, label %._crit_edge32

.noexc.preheader:                                 ; preds = %.noexc.lr.ph
  %22 = sext i32 %17 to i64
  br label %.noexc

.noexc:                                           ; preds = %.noexc.preheader, %._crit_edge
  %23 = phi i32 [ %16, %.noexc.preheader ], [ %42, %._crit_edge ]
  %24 = phi i32 [ %20, %.noexc.preheader ], [ %43, %._crit_edge ]
  %25 = phi i32 [ %20, %.noexc.preheader ], [ %44, %._crit_edge ]
  %indvars.iv = phi i64 [ %22, %.noexc.preheader ], [ %indvars.iv.next, %._crit_edge ]
  %26 = icmp sgt i32 %25, 0
  br i1 %26, label %.lr.ph.preheader, label %._crit_edge

.lr.ph.preheader:                                 ; preds = %.noexc
  %27 = load ptr, ptr %3, align 8, !tbaa !41, !noalias !66
  %28 = load i64, ptr %18, align 8, !tbaa !45, !noalias !66
  %29 = mul i64 %28, %indvars.iv
  %30 = load i64, ptr %19, align 8, !tbaa !13, !noalias !66
  %31 = mul i64 %29, %30
  %32 = getelementptr inbounds nuw i8, ptr %27, i64 %31
  br label %.lr.ph

.lr.ph:                                           ; preds = %.lr.ph.preheader, %37
  %33 = phi i32 [ %38, %37 ], [ %24, %.lr.ph.preheader ]
  %.029 = phi i32 [ %40, %37 ], [ 0, %.lr.ph.preheader ]
  %.01928 = phi ptr [ %39, %37 ], [ %32, %.lr.ph.preheader ]
  %34 = load i8, ptr %.01928, align 1, !tbaa !46
  %35 = icmp slt i8 %34, 0
  br i1 %35, label %36, label %37

36:                                               ; preds = %.lr.ph
  store i8 0, ptr %.01928, align 1, !tbaa !46
  %.pre = load i32, ptr %4, align 4, !tbaa !18
  br label %37

37:                                               ; preds = %36, %.lr.ph
  %38 = phi i32 [ %.pre, %36 ], [ %33, %.lr.ph ]
  %39 = getelementptr inbounds nuw i8, ptr %.01928, i64 1
  %40 = add nuw nsw i32 %.029, 1
  %41 = icmp slt i32 %40, %38
  br i1 %41, label %.lr.ph, label %._crit_edge.loopexit, !llvm.loop !69

._crit_edge.loopexit:                             ; preds = %37
  %.pre35 = load i32, ptr %7, align 4, !tbaa !18
  br label %._crit_edge

._crit_edge:                                      ; preds = %._crit_edge.loopexit, %.noexc
  %42 = phi i32 [ %.pre35, %._crit_edge.loopexit ], [ %23, %.noexc ]
  %43 = phi i32 [ %38, %._crit_edge.loopexit ], [ %24, %.noexc ]
  %44 = phi i32 [ %38, %._crit_edge.loopexit ], [ %25, %.noexc ]
  %indvars.iv.next = add nsw i64 %indvars.iv, 1
  %45 = sext i32 %42 to i64
  %.not.not = icmp slt i64 %indvars.iv, %45
  br i1 %.not.not, label %.noexc, label %._crit_edge32, !llvm.loop !70

._crit_edge32:                                    ; preds = %._crit_edge, %.noexc.lr.ph, %12
  call void @__kmpc_for_static_fini(ptr nonnull @1, i32 %14)
  call void @llvm.lifetime.end.p0(i64 4, ptr nonnull %9) #7
  call void @llvm.lifetime.end.p0(i64 4, ptr nonnull %8) #7
  call void @llvm.lifetime.end.p0(i64 4, ptr nonnull %7) #7
  call void @llvm.lifetime.end.p0(i64 4, ptr nonnull %6) #7
  br label %46

46:                                               ; preds = %._crit_edge32, %5
  ret void
}